target datalayout = "e-m:e-p270:32:32-p271:32:32-p272:64:64-i64:64-i128:128-f80:128-n8:16:32:64-S128"
target triple = "x86_64-pc-linux-gnu"

%"class.std::__cxx11::basic_string" = type { %"struct.std::__cxx11::basic_string<char>::_Alloc_hider", i64, %union.anon }
%"struct.std::__cxx11::basic_string<char>::_Alloc_hider" = type { ptr }
%union.anon = type { i64, [8 x i8] }
%"class.std::unique_ptr.42" = type { %"struct.std::__uniq_ptr_data.43" }
%"struct.std::__uniq_ptr_data.43" = type { %"class.std::__uniq_ptr_impl.44" }
%"class.std::__uniq_ptr_impl.44" = type { %"class.std::tuple.45" }
%"class.std::tuple.45" = type { %"struct.std::_Tuple_impl.46" }
%"struct.std::_Tuple_impl.46" = type { %"struct.std::_Head_base.49" }
%"struct.std::_Head_base.49" = type { ptr }
%"class.net::SpdyFramer" = type <{ ptr, i32, i32, i32, [4 x i8], i64, i64, i64, i64, i64, %"class.net::SpdyFramer::CharBuffer", i32, i32, i32, i32, %"struct.net::SpdyFramer::SpdySettingsScratch", %"class.std::unique_ptr.2", %"class.std::unique_ptr.10", %"class.std::unique_ptr.10", %"class.std::unique_ptr.18", %"class.std::unique_ptr.26", ptr, ptr, %"class.std::unique_ptr.34", ptr, %"class.std::__cxx11::basic_string", %"class.std::unique_ptr.42", i32, i8, i8, i8, i8, i8, i8, i8, [5 x i8] }>
%"class.net::SpdyFramer::CharBuffer" = type { %"class.std::unique_ptr", i64, i64 }
%"class.std::unique_ptr" = type { %"struct.std::__uniq_ptr_data" }
%"struct.std::__uniq_ptr_data" = type { %"class.std::__uniq_ptr_impl" }
%"class.std::__uniq_ptr_impl" = type { %"class.std::tuple" }
%"class.std::tuple" = type { %"struct.std::_Tuple_impl" }
%"struct.std::_Tuple_impl" = type { %"struct.std::_Head_base.1" }
%"struct.std::_Head_base.1" = type { ptr }
%"struct.net::SpdyFramer::SpdySettingsScratch" = type <{ %"class.net::SpdyFramer::CharBuffer", i32, [4 x i8] }>
%"class.std::unique_ptr.2" = type { %"struct.std::__uniq_ptr_data.3" }
%"struct.std::__uniq_ptr_data.3" = type { %"class.std::__uniq_ptr_impl.4" }
%"class.std::__uniq_ptr_impl.4" = type { %"class.std::tuple.5" }
%"class.std::tuple.5" = type { %"struct.std::_Tuple_impl.6" }
%"struct.std::_Tuple_impl.6" = type { %"struct.std::_Head_base.9" }
%"struct.std::_Head_base.9" = type { ptr }
%"class.std::unique_ptr.10" = type { %"struct.std::__uniq_ptr_data.11" }
%"struct.std::__uniq_ptr_data.11" = type { %"class.std::__uniq_ptr_impl.12" }
%"class.std::__uniq_ptr_impl.12" = type { %"class.std::tuple.13" }
%"class.std::tuple.13" = type { %"struct.std::_Tuple_impl.14" }
%"struct.std::_Tuple_impl.14" = type { %"struct.std::_Head_base.17" }
%"struct.std::_Head_base.17" = type { ptr }
%"class.std::unique_ptr.18" = type { %"struct.std::__uniq_ptr_data.19" }
%"struct.std::__uniq_ptr_data.19" = type { %"class.std::__uniq_ptr_impl.20" }
%"class.std::__uniq_ptr_impl.20" = type { %"class.std::tuple.21" }
%"class.std::tuple.21" = type { %"struct.std::_Tuple_impl.22" }
%"struct.std::_Tuple_impl.22" = type { %"struct.std::_Head_base.25" }
%"struct.std::_Head_base.25" = type { ptr }
%"class.std::unique_ptr.26" = type { %"struct.std::__uniq_ptr_data.27" }
%"struct.std::__uniq_ptr_data.27" = type { %"class.std::__uniq_ptr_impl.28" }
%"class.std::__uniq_ptr_impl.28" = type { %"class.std::tuple.29" }
%"class.std::tuple.29" = type { %"struct.std::_Tuple_impl.30" }
%"struct.std::_Tuple_impl.30" = type { %"struct.std::_Head_base.33" }
%"struct.std::_Head_base.33" = type { ptr }
%"class.std::unique_ptr.34" = type { %"struct.std::__uniq_ptr_data.35" }
%"struct.std::__uniq_ptr_data.35" = type { %"class.std::__uniq_ptr_impl.36" }
%"class.std::__uniq_ptr_impl.36" = type { %"class.std::tuple.37" }
%"class.std::tuple.37" = type { %"struct.std::_Tuple_impl.38" }
%"struct.std::_Tuple_impl.38" = type { %"struct.std::_Head_base.41" }
%"struct.std::_Head_base.41" = type { ptr }

@_ZN3net10SpdyFramer23kMaxDataPayloadSendSizeE = constant i64 16384, align 8

; Function Attrs: inlinehint mustprogress nounwind uwtable
define linkonce_odr noundef nonnull align 8 dereferenceable(8) ptr @_ZSt3minImERKT_S2_S2_(ptr noundef nonnull align 8 dereferenceable(8) %0, ptr noundef nonnull align 8 dereferenceable(8) %1) #6 comdat {
  %3 = alloca ptr, align 8
  %4 = alloca ptr, align 8
  %5 = alloca ptr, align 8
  store ptr %0, ptr %4, align 8, !tbaa !165
  store ptr %1, ptr %5, align 8, !tbaa !165
  %6 = load ptr, ptr %5, align 8, !tbaa !165
  %7 = load i64, ptr %6, align 8, !tbaa !28
  %8 = load ptr, ptr %4, align 8, !tbaa !165
  %9 = load i64, ptr %8, align 8, !tbaa !28
  %10 = icmp ult i64 %7, %9
  br i1 %10, label %11, label %13

11:                                               ; preds = %2
  %12 = load ptr, ptr %5, align 8, !tbaa !165
  store ptr %12, ptr %3, align 8
  br label %15

13:                                               ; preds = %2
  %14 = load ptr, ptr %4, align 8, !tbaa !165
  store ptr %14, ptr %3, align 8
  br label %15

15:                                               ; preds = %13, %11
  %16 = load ptr, ptr %3, align 8
  ret ptr %16
}

; Function Attrs: mustprogress uwtable
define noundef i64 @_ZNK3net10SpdyFramer23GetDataFrameMinimumSizeEv(ptr noundef nonnull align 8 dereferenceable(259) %0) #0 align 2 {
  %2 = alloca ptr, align 8
  store ptr %0, ptr %2, align 8, !tbaa !30
  %3 = load ptr, ptr %2, align 8
  %4 = getelementptr inbounds nuw %"class.net::SpdyFramer", ptr %3, i32 0, i32 27
  %5 = load i32, ptr %4, align 8, !tbaa !98
  %6 = call noundef i64 @_ZN3net13SpdyConstants23GetDataFrameMinimumSizeENS_16SpdyMajorVersionE(i32 noundef %5)
  ret i64 %6
}

; Function Attrs: mustprogress uwtable
define noundef i64 @_ZNK3net10SpdyFramer19GetFrameMaximumSizeEv(ptr noundef nonnull align 8 dereferenceable(259) %0) #0 align 2 {
  %2 = alloca i64, align 8
  %3 = alloca ptr, align 8
  store ptr %0, ptr %3, align 8, !tbaa !30
  %4 = load ptr, ptr %3, align 8
  %5 = getelementptr inbounds nuw %"class.net::SpdyFramer", ptr %4, i32 0, i32 27
  %6 = load i32, ptr %5, align 8, !tbaa !98
  %7 = icmp eq i32 %6, 2
  br i1 %7, label %8, label %15

8:                                                ; preds = %1
  %9 = getelementptr inbounds nuw %"class.net::SpdyFramer", ptr %4, i32 0, i32 8
  %10 = load i64, ptr %9, align 8, !tbaa !33
  %11 = getelementptr inbounds nuw %"class.net::SpdyFramer", ptr %4, i32 0, i32 27
  %12 = load i32, ptr %11, align 8, !tbaa !98
  %13 = call noundef i64 @_ZN3net13SpdyConstants18GetFrameHeaderSizeENS_16SpdyMajorVersionE(i32 noundef %12)
  %14 = add i64 %10, %13
  store i64 %14, ptr %2, align 8
  br label %19

15:                                               ; preds = %1
  %16 = getelementptr inbounds nuw %"class.net::SpdyFramer", ptr %4, i32 0, i32 27
  %17 = load i32, ptr %16, align 8, !tbaa !98
  %18 = call noundef i64 @_ZN3net13SpdyConstants20GetMaxFrameSizeLimitENS_16SpdyMajorVersionE(i32 noundef %17)
  store i64 %18, ptr %2, align 8
  br label %19

19:                                               ; preds = %15, %8
  %20 = load i64, ptr %2, align 8
  ret i64 %20
}

; Function Attrs: mustprogress uwtable
define noundef i64 @_ZNK3net10SpdyFramer26GetDataFrameMaximumPayloadEv(ptr noundef nonnull align 8 dereferenceable(259) %0) #0 align 2 {
  %2 = alloca i64, align 8
  %3 = alloca ptr, align 8
  %4 = alloca i64, align 8
  store ptr %0, ptr %3, align 8, !tbaa !30
  %5 = load ptr, ptr %3, align 8
  %6 = getelementptr inbounds nuw %"class.net::SpdyFramer", ptr %5, i32 0, i32 27
  %7 = load i32, ptr %6, align 8, !tbaa !98
  %8 = icmp eq i32 %7, 2
  br i1 %8, label %9, label %15

9:                                                ; preds = %1
  call void @llvm.lifetime.start.p0(i64 8, ptr %4) #18
  %10 = call noundef i64 @_ZNK3net10SpdyFramer19GetFrameMaximumSizeEv(ptr noundef nonnull align 8 dereferenceable(259) %5)
  %11 = call noundef i64 @_ZNK3net10SpdyFramer23GetDataFrameMinimumSizeEv(ptr noundef nonnull align 8 dereferenceable(259) %5)
  %12 = sub i64 %10, %11
  store i64 %12, ptr %4, align 8, !tbaa !28
  %13 = call noundef nonnull align 8 dereferenceable(8) ptr @_ZSt3minImERKT_S2_S2_(ptr noundef nonnull align 8 dereferenceable(8) @_ZN3net10SpdyFramer23kMaxDataPayloadSendSizeE, ptr noundef nonnull align 8 dereferenceable(8) %4)
  %14 = load i64, ptr %13, align 8, !tbaa !28
  store i64 %14, ptr %2, align 8
  call void @llvm.lifetime.end.p0(i64 8, ptr %4) #18
  br label %19

15:                                               ; preds = %1
  %16 = call noundef i64 @_ZNK3net10SpdyFramer19GetFrameMaximumSizeEv(ptr noundef nonnull align 8 dereferenceable(259) %5)
  %17 = call noundef i64 @_ZNK3net10SpdyFramer23GetDataFrameMinimumSizeEv(ptr noundef nonnull align 8 dereferenceable(259) %5)
  %18 = sub i64 %16, %17
  store i64 %18, ptr %2, align 8
  br label %19

19:                                               ; preds = %15, %9
  %20 = load i64, ptr %2, align 8
  ret i64 %20
}