; Function Attrs: mustprogress uwtable
define noundef i64 @_ZNK3net10SpdyFramer26GetDataFrameMaximumPayloadEv(ptr noundef nonnull readonly align 8 captures(none) dereferenceable(259) %0) local_unnamed_addr #0 align 2 {
  %2 = getelementptr inbounds nuw i8, ptr %0, i64 248
  %3 = load i32, ptr %2, align 8, !tbaa !82
  %4 = icmp eq i32 %3, 2
  br i1 %4, label %_ZNK3net10SpdyFramer19GetFrameMaximumSizeEv.exit, label %_ZNK3net10SpdyFramer19GetFrameMaximumSizeEv.exit2

_ZNK3net10SpdyFramer19GetFrameMaximumSizeEv.exit: ; preds = %1
  %5 = getelementptr inbounds nuw i8, ptr %0, i64 48
  %6 = load i64, ptr %5, align 8, !tbaa !11
  %7 = tail call noundef i64 @_ZN3net13SpdyConstants18GetFrameHeaderSizeENS_16SpdyMajorVersionE(i32 noundef 2)
  %8 = add i64 %7, %6
  %9 = load i32, ptr %2, align 8, !tbaa !82
  %10 = tail call noundef i64 @_ZN3net13SpdyConstants23GetDataFrameMinimumSizeENS_16SpdyMajorVersionE(i32 noundef %9)
  %11 = sub i64 %8, %10
  %.sroa.speculated = tail call i64 @llvm.umin.i64(i64 %11, i64 16384)
  br label %16

_ZNK3net10SpdyFramer19GetFrameMaximumSizeEv.exit2: ; preds = %1
  %12 = tail call noundef i64 @_ZN3net13SpdyConstants20GetMaxFrameSizeLimitENS_16SpdyMajorVersionE(i32 noundef %3)
  %13 = load i32, ptr %2, align 8, !tbaa !82
  %14 = tail call noundef i64 @_ZN3net13SpdyConstants23GetDataFrameMinimumSizeENS_16SpdyMajorVersionE(i32 noundef %13)
  %15 = sub i64 %12, %14
  br label %16

16:                                               ; preds = %_ZNK3net10SpdyFramer19GetFrameMaximumSizeEv.exit2, %_ZNK3net10SpdyFramer19GetFrameMaximumSizeEv.exit
  %.0 = phi i64 [ %.sroa.speculated, %_ZNK3net10SpdyFramer19GetFrameMaximumSizeEv.exit ], [ %15, %_ZNK3net10SpdyFramer19GetFrameMaximumSizeEv.exit2 ]
  ret i64 %.0
}